; Function Attrs: nounwind uwtable
define dso_local i64 @gin_extract_tsvector_2args(ptr noundef readonly captures(none) %0) local_unnamed_addr #0 {
  %2 = getelementptr inbounds nuw i8, ptr %0, i64 30
  %3 = load i16, ptr %2, align 2
  %4 = icmp slt i16 %3, 3
  br i1 %4, label %5, label %8

5:                                                ; preds = %1
  %6 = tail call zeroext i1 @errstart_cold(i32 noundef 21, ptr noundef null) #7
  tail call void @llvm.assume(i1 %6)
  %7 = tail call i32 (ptr, ...) @errmsg_internal(ptr noundef nonnull @.str) #6
  tail call void @errfinish(ptr noundef nonnull @.str.1, i32 noundef 307, ptr noundef nonnull @__func__.gin_extract_tsvector_2args) #6
  unreachable

8:                                                ; preds = %1
  %9 = getelementptr inbounds nuw i8, ptr %0, i64 32
  %10 = load i64, ptr %9, align 8
  %11 = inttoptr i64 %10 to ptr
  %12 = tail call ptr @pg_detoast_datum(ptr noundef %11) #6
  %13 = getelementptr inbounds nuw i8, ptr %0, i64 48
  %14 = load i64, ptr %13, align 8
  %15 = inttoptr i64 %14 to ptr
  %16 = getelementptr inbounds nuw i8, ptr %12, i64 4
  %17 = load i32, ptr %16, align 4
  store i32 %17, ptr %15, align 4
  %18 = icmp sgt i32 %17, 0
  br i1 %18, label %19, label %.loopexit.i

19:                                               ; preds = %8
  %20 = getelementptr inbounds nuw i8, ptr %12, i64 8
  %21 = zext nneg i32 %17 to i64
  %22 = shl nuw nsw i64 %21, 3
  %23 = tail call ptr @palloc(i64 noundef %22) #6
  %24 = load i32, ptr %16, align 4
  %25 = icmp sgt i32 %24, 0
  br i1 %25, label %.lr.ph.i, label %.loopexit.i

.lr.ph.i:                                         ; preds = %19, %.lr.ph.i
  %indvars.iv.i = phi i64 [ %indvars.iv.next.i, %.lr.ph.i ], [ 0, %19 ]
  %26 = phi i32 [ %39, %.lr.ph.i ], [ %24, %19 ]
  %.02127.i = phi ptr [ %38, %.lr.ph.i ], [ %20, %19 ]
  %27 = sext i32 %26 to i64
  %28 = getelementptr inbounds [0 x %struct.WordEntry], ptr %20, i64 0, i64 %27
  %29 = load i32, ptr %.02127.i, align 4
  %30 = lshr i32 %29, 12
  %31 = zext nneg i32 %30 to i64
  %32 = getelementptr inbounds nuw i8, ptr %28, i64 %31
  %33 = lshr i32 %29, 1
  %34 = and i32 %33, 2047
  %35 = tail call ptr @cstring_to_text_with_len(ptr noundef nonnull %32, i32 noundef %34) #6
  %36 = ptrtoint ptr %35 to i64
  %37 = getelementptr inbounds nuw i64, ptr %23, i64 %indvars.iv.i
  store i64 %36, ptr %37, align 8
  %38 = getelementptr inbounds nuw i8, ptr %.02127.i, i64 4
  %indvars.iv.next.i = add nuw nsw i64 %indvars.iv.i, 1
  %39 = load i32, ptr %16, align 4
  %40 = sext i32 %39 to i64
  %41 = icmp slt i64 %indvars.iv.next.i, %40
  br i1 %41, label %.lr.ph.i, label %.loopexit.i, !llvm.loop !4

.loopexit.i:                                      ; preds = %.lr.ph.i, %19, %8
  %.0.i = phi ptr [ null, %8 ], [ %23, %19 ], [ %23, %.lr.ph.i ]
  %42 = load i64, ptr %9, align 8
  %43 = inttoptr i64 %42 to ptr
  %.not.i = icmp eq ptr %12, %43
  br i1 %.not.i, label %gin_extract_tsvector.exit, label %44

44:                                               ; preds = %.loopexit.i
  tail call void @pfree(ptr noundef nonnull %12) #6
  br label %gin_extract_tsvector.exit

gin_extract_tsvector.exit:                        ; preds = %.loopexit.i, %44
  %45 = ptrtoint ptr %.0.i to i64
  ret i64 %45
}